target datalayout = "e-m:e-p270:32:32-p271:32:32-p272:64:64-i64:64-i128:128-f80:128-n8:16:32:64-S128"
target triple = "x86_64-pc-linux-gnu"

%struct.jpeg_compress_struct = type { ptr, ptr, ptr, ptr, i32, i32, ptr, i32, i32, i32, i32, double, i32, i32, i32, ptr, [4 x ptr], [4 x ptr], [4 x ptr], [16 x i8], [16 x i8], [16 x i8], i32, ptr, i32, i32, i32, i32, i32, i32, i32, i32, i32, i8, i8, i8, i16, i16, i32, i32, i32, i32, i32, i32, i32, [4 x ptr], i32, i32, i32, [10 x i32], i32, i32, i32, i32, ptr, ptr, ptr, ptr, ptr, ptr, ptr, ptr, ptr, ptr, i32 }
%struct.jpeg_lossless_compressor = type { %struct.jpeg_forward_dct, [10 x ptr], [10 x i32], ptr }
%struct.jpeg_forward_dct = type { ptr, ptr, ptr }

; Function Attrs: nounwind uwtable
define internal void @reset_predictor(ptr noundef %0, i32 noundef %1) #0 {
  %3 = alloca ptr, align 8
  %4 = alloca i32, align 4
  %5 = alloca ptr, align 8
  store ptr %0, ptr %3, align 8, !tbaa !3
  store i32 %1, ptr %4, align 4, !tbaa !45
  call void @llvm.lifetime.start.p0(i64 8, ptr %5) #3
  %6 = load ptr, ptr %3, align 8, !tbaa !3
  %7 = getelementptr inbounds nuw %struct.jpeg_compress_struct, ptr %6, i32 0, i32 61
  %8 = load ptr, ptr %7, align 8, !tbaa !37
  store ptr %8, ptr %5, align 8, !tbaa !36
  %9 = load ptr, ptr %3, align 8, !tbaa !3
  %10 = getelementptr inbounds nuw %struct.jpeg_compress_struct, ptr %9, i32 0, i32 30
  %11 = load i32, ptr %10, align 8, !tbaa !43
  %12 = load ptr, ptr %3, align 8, !tbaa !3
  %13 = getelementptr inbounds nuw %struct.jpeg_compress_struct, ptr %12, i32 0, i32 46
  %14 = load i32, ptr %13, align 8, !tbaa !44
  %15 = udiv i32 %11, %14
  %16 = load ptr, ptr %5, align 8, !tbaa !36
  %17 = getelementptr inbounds nuw %struct.jpeg_lossless_compressor, ptr %16, i32 0, i32 2
  %18 = load i32, ptr %4, align 4, !tbaa !45
  %19 = sext i32 %18 to i64
  %20 = getelementptr inbounds [10 x i32], ptr %17, i64 0, i64 %19
  store i32 %15, ptr %20, align 4, !tbaa !45
  %21 = load ptr, ptr %5, align 8, !tbaa !36
  %22 = getelementptr inbounds nuw %struct.jpeg_lossless_compressor, ptr %21, i32 0, i32 1
  %23 = load i32, ptr %4, align 4, !tbaa !45
  %24 = sext i32 %23 to i64
  %25 = getelementptr inbounds [10 x ptr], ptr %22, i64 0, i64 %24
  store ptr @jpeg_difference_first_row, ptr %25, align 8, !tbaa !36
  call void @llvm.lifetime.end.p0(i64 8, ptr %5) #3
  ret void
}

; Function Attrs: nounwind uwtable
define internal void @jpeg_difference_first_row(ptr noundef %0, i32 noundef %1, ptr noundef %2, ptr noundef %3, ptr noundef %4, i32 noundef %5) #0 {
  %7 = alloca ptr, align 8
  %8 = alloca i32, align 4
  %9 = alloca ptr, align 8
  %10 = alloca ptr, align 8
  %11 = alloca ptr, align 8
  %12 = alloca i32, align 4
  %13 = alloca ptr, align 8
  %14 = alloca i32, align 4
  %15 = alloca i32, align 4
  %16 = alloca i32, align 4
  store ptr %0, ptr %7, align 8, !tbaa !3
  store i32 %1, ptr %8, align 4, !tbaa !45
  store ptr %2, ptr %9, align 8, !tbaa !49
  store ptr %3, ptr %10, align 8, !tbaa !49
  store ptr %4, ptr %11, align 8, !tbaa !52
  store i32 %5, ptr %12, align 4, !tbaa !45
  call void @llvm.lifetime.start.p0(i64 8, ptr %13) #3
  %17 = load ptr, ptr %7, align 8, !tbaa !3
  %18 = getelementptr inbounds nuw %struct.jpeg_compress_struct, ptr %17, i32 0, i32 61
  %19 = load ptr, ptr %18, align 8, !tbaa !37
  store ptr %19, ptr %13, align 8, !tbaa !36
  call void @llvm.lifetime.start.p0(i64 4, ptr %14) #3
  store i32 0, ptr %14, align 4, !tbaa !45
  call void @llvm.lifetime.start.p0(i64 4, ptr %15) #3
  call void @llvm.lifetime.start.p0(i64 4, ptr %16) #3
  %20 = load ptr, ptr %9, align 8, !tbaa !49
  %21 = getelementptr inbounds nuw i8, ptr %20, i32 1
  store ptr %21, ptr %9, align 8, !tbaa !49
  %22 = load i8, ptr %20, align 1, !tbaa !31
  %23 = zext i8 %22 to i32
  store i32 %23, ptr %15, align 4, !tbaa !45
  %24 = load i32, ptr %15, align 4, !tbaa !45
  %25 = load ptr, ptr %7, align 8, !tbaa !3
  %26 = getelementptr inbounds nuw %struct.jpeg_compress_struct, ptr %25, i32 0, i32 12
  %27 = load i32, ptr %26, align 8, !tbaa !8
  %28 = load ptr, ptr %7, align 8, !tbaa !3
  %29 = getelementptr inbounds nuw %struct.jpeg_compress_struct, ptr %28, i32 0, i32 53
  %30 = load i32, ptr %29, align 8, !tbaa !41
  %31 = sub nsw i32 %27, %30
  %32 = sub nsw i32 %31, 1
  %33 = shl i32 1, %32
  %34 = sub nsw i32 %24, %33
  %35 = load ptr, ptr %11, align 8, !tbaa !52
  %36 = getelementptr inbounds nuw i32, ptr %35, i32 1
  store ptr %36, ptr %11, align 8, !tbaa !52
  store i32 %34, ptr %35, align 4, !tbaa !45
  br label %37

37:                                               ; preds = %41, %6
  %38 = load i32, ptr %12, align 4, !tbaa !45
  %39 = add i32 %38, -1
  store i32 %39, ptr %12, align 4, !tbaa !45
  %40 = icmp ne i32 %39, 0
  br i1 %40, label %41, label %52

41:                                               ; preds = %37
  %42 = load i32, ptr %15, align 4, !tbaa !45
  store i32 %42, ptr %16, align 4, !tbaa !45
  %43 = load ptr, ptr %9, align 8, !tbaa !49
  %44 = getelementptr inbounds nuw i8, ptr %43, i32 1
  store ptr %44, ptr %9, align 8, !tbaa !49
  %45 = load i8, ptr %43, align 1, !tbaa !31
  %46 = zext i8 %45 to i32
  store i32 %46, ptr %15, align 4, !tbaa !45
  %47 = load i32, ptr %15, align 4, !tbaa !45
  %48 = load i32, ptr %16, align 4, !tbaa !45
  %49 = sub nsw i32 %47, %48
  %50 = load ptr, ptr %11, align 8, !tbaa !52
  %51 = getelementptr inbounds nuw i32, ptr %50, i32 1
  store ptr %51, ptr %11, align 8, !tbaa !52
  store i32 %49, ptr %50, align 4, !tbaa !45
  br label %37, !llvm.loop !54

52:                                               ; preds = %37
  %53 = load ptr, ptr %7, align 8, !tbaa !3
  %54 = getelementptr inbounds nuw %struct.jpeg_compress_struct, ptr %53, i32 0, i32 30
  %55 = load i32, ptr %54, align 8, !tbaa !43
  %56 = icmp ne i32 %55, 0
  br i1 %56, label %57, label %70

57:                                               ; preds = %52
  %58 = load ptr, ptr %13, align 8, !tbaa !36
  %59 = getelementptr inbounds nuw %struct.jpeg_lossless_compressor, ptr %58, i32 0, i32 2
  %60 = load i32, ptr %8, align 4, !tbaa !45
  %61 = sext i32 %60 to i64
  %62 = getelementptr inbounds [10 x i32], ptr %59, i64 0, i64 %61
  %63 = load i32, ptr %62, align 4, !tbaa !45
  %64 = add i32 %63, -1
  store i32 %64, ptr %62, align 4, !tbaa !45
  %65 = icmp eq i32 %64, 0
  br i1 %65, label %66, label %69

66:                                               ; preds = %57
  %67 = load ptr, ptr %7, align 8, !tbaa !3
  %68 = load i32, ptr %8, align 4, !tbaa !45
  call void @reset_predictor(ptr noundef %67, i32 noundef %68)
  store i32 1, ptr %14, align 4, !tbaa !45
  br label %69

69:                                               ; preds = %66, %57
  br label %70

70:                                               ; preds = %69, %52
  %71 = load i32, ptr %14, align 4, !tbaa !45
  %72 = icmp ne i32 %71, 0
  br i1 %72, label %120, label %73

73:                                               ; preds = %70
  %74 = load ptr, ptr %7, align 8, !tbaa !3
  %75 = getelementptr inbounds nuw %struct.jpeg_compress_struct, ptr %74, i32 0, i32 50
  %76 = load i32, ptr %75, align 4, !tbaa !55
  switch i32 %76, label %119 [
    i32 1, label %77
    i32 2, label %83
    i32 3, label %89
    i32 4, label %95
    i32 5, label %101
    i32 6, label %107
    i32 7, label %113
  ]

77:                                               ; preds = %73
  %78 = load ptr, ptr %13, align 8, !tbaa !36
  %79 = getelementptr inbounds nuw %struct.jpeg_lossless_compressor, ptr %78, i32 0, i32 1
  %80 = load i32, ptr %8, align 4, !tbaa !45
  %81 = sext i32 %80 to i64
  %82 = getelementptr inbounds [10 x ptr], ptr %79, i64 0, i64 %81
  store ptr @jpeg_difference1, ptr %82, align 8, !tbaa !36
  br label %119

83:                                               ; preds = %73
  %84 = load ptr, ptr %13, align 8, !tbaa !36
  %85 = getelementptr inbounds nuw %struct.jpeg_lossless_compressor, ptr %84, i32 0, i32 1
  %86 = load i32, ptr %8, align 4, !tbaa !45
  %87 = sext i32 %86 to i64
  %88 = getelementptr inbounds [10 x ptr], ptr %85, i64 0, i64 %87
  store ptr @jpeg_difference2, ptr %88, align 8, !tbaa !36
  br label %119

89:                                               ; preds = %73
  %90 = load ptr, ptr %13, align 8, !tbaa !36
  %91 = getelementptr inbounds nuw %struct.jpeg_lossless_compressor, ptr %90, i32 0, i32 1
  %92 = load i32, ptr %8, align 4, !tbaa !45
  %93 = sext i32 %92 to i64
  %94 = getelementptr inbounds [10 x ptr], ptr %91, i64 0, i64 %93
  store ptr @jpeg_difference3, ptr %94, align 8, !tbaa !36
  br label %119

95:                                               ; preds = %73
  %96 = load ptr, ptr %13, align 8, !tbaa !36
  %97 = getelementptr inbounds nuw %struct.jpeg_lossless_compressor, ptr %96, i32 0, i32 1
  %98 = load i32, ptr %8, align 4, !tbaa !45
  %99 = sext i32 %98 to i64
  %100 = getelementptr inbounds [10 x ptr], ptr %97, i64 0, i64 %99
  store ptr @jpeg_difference4, ptr %100, align 8, !tbaa !36
  br label %119

101:                                              ; preds = %73
  %102 = load ptr, ptr %13, align 8, !tbaa !36
  %103 = getelementptr inbounds nuw %struct.jpeg_lossless_compressor, ptr %102, i32 0, i32 1
  %104 = load i32, ptr %8, align 4, !tbaa !45
  %105 = sext i32 %104 to i64
  %106 = getelementptr inbounds [10 x ptr], ptr %103, i64 0, i64 %105
  store ptr @jpeg_difference5, ptr %106, align 8, !tbaa !36
  br label %119

107:                                              ; preds = %73
  %108 = load ptr, ptr %13, align 8, !tbaa !36
  %109 = getelementptr inbounds nuw %struct.jpeg_lossless_compressor, ptr %108, i32 0, i32 1
  %110 = load i32, ptr %8, align 4, !tbaa !45
  %111 = sext i32 %110 to i64
  %112 = getelementptr inbounds [10 x ptr], ptr %109, i64 0, i64 %111
  store ptr @jpeg_difference6, ptr %112, align 8, !tbaa !36
  br label %119

113:                                              ; preds = %73
  %114 = load ptr, ptr %13, align 8, !tbaa !36
  %115 = getelementptr inbounds nuw %struct.jpeg_lossless_compressor, ptr %114, i32 0, i32 1
  %116 = load i32, ptr %8, align 4, !tbaa !45
  %117 = sext i32 %116 to i64
  %118 = getelementptr inbounds [10 x ptr], ptr %115, i64 0, i64 %117
  store ptr @jpeg_difference7, ptr %118, align 8, !tbaa !36
  br label %119

119:                                              ; preds = %73, %113, %107, %101, %95, %89, %83, %77
  br label %120

120:                                              ; preds = %119, %70
  call void @llvm.lifetime.end.p0(i64 4, ptr %16) #3
  call void @llvm.lifetime.end.p0(i64 4, ptr %15) #3
  call void @llvm.lifetime.end.p0(i64 4, ptr %14) #3
  call void @llvm.lifetime.end.p0(i64 8, ptr %13) #3
  ret void
}