; Function Attrs: nofree norecurse nosync nounwind memory(readwrite, inaccessiblemem: none) uwtable
define internal void @jpeg_difference_first_row(ptr noundef readonly captures(none) %0, i32 noundef %1, ptr noundef readonly captures(none) %2, ptr readnone captures(none) %3, ptr noundef writeonly captures(none) initializes((0, 4)) %4, i32 noundef %5) #4 {
  %7 = getelementptr inbounds nuw i8, ptr %0, i64 488
  %8 = load ptr, ptr %7, align 8, !tbaa !34
  %9 = load i8, ptr %2, align 1, !tbaa !29
  %10 = zext i8 %9 to i32
  %11 = getelementptr inbounds nuw i8, ptr %0, i64 72
  %12 = load i32, ptr %11, align 8, !tbaa !3
  %13 = getelementptr inbounds nuw i8, ptr %0, i64 424
  %14 = load i32, ptr %13, align 8, !tbaa !38
  %15 = xor i32 %14, -1
  %16 = add i32 %12, %15
  %.neg = shl nsw i32 -1, %16
  %17 = add nsw i32 %.neg, %10
  store i32 %17, ptr %4, align 4, !tbaa !43
  %18 = add i32 %5, -1
  %.not40 = icmp eq i32 %18, 0
  br i1 %.not40, label %._crit_edge, label %.lr.ph

.lr.ph:                                           ; preds = %6, %.lr.ph
  %19 = phi i32 [ %23, %.lr.ph ], [ %18, %6 ]
  %.pn43 = phi ptr [ %.0, %.lr.ph ], [ %2, %6 ]
  %.03242 = phi i32 [ %21, %.lr.ph ], [ %10, %6 ]
  %.pn3941 = phi ptr [ %.034, %.lr.ph ], [ %4, %6 ]
  %.034 = getelementptr inbounds nuw i8, ptr %.pn3941, i64 4
  %.0 = getelementptr inbounds nuw i8, ptr %.pn43, i64 1
  %20 = load i8, ptr %.0, align 1, !tbaa !29
  %21 = zext i8 %20 to i32
  %22 = sub nsw i32 %21, %.03242
  store i32 %22, ptr %.034, align 4, !tbaa !43
  %23 = add i32 %19, -1
  %.not = icmp eq i32 %23, 0
  br i1 %.not, label %._crit_edge, label %.lr.ph, !llvm.loop !48

._crit_edge:                                      ; preds = %.lr.ph, %6
  %24 = getelementptr inbounds nuw i8, ptr %0, i64 280
  %25 = load i32, ptr %24, align 8, !tbaa !40
  %.not37 = icmp eq i32 %25, 0
  br i1 %.not37, label %39, label %26

26:                                               ; preds = %._crit_edge
  %27 = getelementptr inbounds nuw i8, ptr %8, i64 104
  %28 = sext i32 %1 to i64
  %29 = getelementptr inbounds [10 x i32], ptr %27, i64 0, i64 %28
  %30 = load i32, ptr %29, align 4, !tbaa !43
  %31 = add i32 %30, -1
  store i32 %31, ptr %29, align 4, !tbaa !43
  %32 = icmp eq i32 %31, 0
  br i1 %32, label %.critedge, label %39

.critedge:                                        ; preds = %26
  %33 = load i32, ptr %24, align 8, !tbaa !40
  %34 = getelementptr inbounds nuw i8, ptr %0, i64 360
  %35 = load i32, ptr %34, align 8, !tbaa !41
  %36 = udiv i32 %33, %35
  store i32 %36, ptr %29, align 4, !tbaa !43
  %37 = getelementptr inbounds nuw i8, ptr %8, i64 24
  %38 = getelementptr inbounds [10 x ptr], ptr %37, i64 0, i64 %28
  store ptr @jpeg_difference_first_row, ptr %38, align 8, !tbaa !44
  br label %70

39:                                               ; preds = %._crit_edge, %26
  %40 = getelementptr inbounds nuw i8, ptr %0, i64 412
  %41 = load i32, ptr %40, align 4, !tbaa !49
  switch i32 %41, label %70 [
    i32 1, label %42
    i32 2, label %46
    i32 3, label %50
    i32 4, label %54
    i32 5, label %58
    i32 6, label %62
    i32 7, label %66
  ]

42:                                               ; preds = %39
  %43 = getelementptr inbounds nuw i8, ptr %8, i64 24
  %44 = sext i32 %1 to i64
  %45 = getelementptr inbounds [10 x ptr], ptr %43, i64 0, i64 %44
  store ptr @jpeg_difference1, ptr %45, align 8, !tbaa !44
  br label %70

46:                                               ; preds = %39
  %47 = getelementptr inbounds nuw i8, ptr %8, i64 24
  %48 = sext i32 %1 to i64
  %49 = getelementptr inbounds [10 x ptr], ptr %47, i64 0, i64 %48
  store ptr @jpeg_difference2, ptr %49, align 8, !tbaa !44
  br label %70

50:                                               ; preds = %39
  %51 = getelementptr inbounds nuw i8, ptr %8, i64 24
  %52 = sext i32 %1 to i64
  %53 = getelementptr inbounds [10 x ptr], ptr %51, i64 0, i64 %52
  store ptr @jpeg_difference3, ptr %53, align 8, !tbaa !44
  br label %70

54:                                               ; preds = %39
  %55 = getelementptr inbounds nuw i8, ptr %8, i64 24
  %56 = sext i32 %1 to i64
  %57 = getelementptr inbounds [10 x ptr], ptr %55, i64 0, i64 %56
  store ptr @jpeg_difference4, ptr %57, align 8, !tbaa !44
  br label %70

58:                                               ; preds = %39
  %59 = getelementptr inbounds nuw i8, ptr %8, i64 24
  %60 = sext i32 %1 to i64
  %61 = getelementptr inbounds [10 x ptr], ptr %59, i64 0, i64 %60
  store ptr @jpeg_difference5, ptr %61, align 8, !tbaa !44
  br label %70

62:                                               ; preds = %39
  %63 = getelementptr inbounds nuw i8, ptr %8, i64 24
  %64 = sext i32 %1 to i64
  %65 = getelementptr inbounds [10 x ptr], ptr %63, i64 0, i64 %64
  store ptr @jpeg_difference6, ptr %65, align 8, !tbaa !44
  br label %70

66:                                               ; preds = %39
  %67 = getelementptr inbounds nuw i8, ptr %8, i64 24
  %68 = sext i32 %1 to i64
  %69 = getelementptr inbounds [10 x ptr], ptr %67, i64 0, i64 %68
  store ptr @jpeg_difference7, ptr %69, align 8, !tbaa !44
  br label %70

70:                                               ; preds = %.critedge, %39, %42, %46, %50, %54, %58, %62, %66
  ret void
}